target datalayout = "e-m:e-p270:32:32-p271:32:32-p272:64:64-i64:64-i128:128-f80:128-n8:16:32:64-S128"
target triple = "x86_64-pc-linux-gnu"

%struct.VP8Encoder = type { ptr, ptr, %struct.VP8EncFilterHeader, %struct.VP8EncSegmentHeader, i32, i32, i32, i32, i32, %struct.VP8BitWriter, [8 x %struct.VP8BitWriter], %struct.VP8TBuffer, i32, i32, ptr, i32, %struct.WebPWorker, [4 x %struct.VP8SegmentInfo], i32, i32, i32, i32, i32, i32, i32, i32, %struct.VP8EncProba, [4 x i64], i64, i32, [3 x [4 x i32]], [3 x i32], i32, i32, i32, i32, i32, i32, i32, ptr, ptr, ptr, ptr, ptr, ptr, ptr }
%struct.VP8EncFilterHeader = type { i32, i32, i32, i32 }
%struct.VP8EncSegmentHeader = type { i32, i32, i32 }
%struct.VP8BitWriter = type { i32, i32, i32, i32, ptr, i64, i64, i32 }
%struct.VP8TBuffer = type { ptr, ptr, ptr, i32, i32, i32 }
%struct.WebPWorker = type { ptr, i32, ptr, ptr, ptr, i32 }
%struct.VP8SegmentInfo = type { %struct.VP8Matrix, %struct.VP8Matrix, %struct.VP8Matrix, i32, i32, i32, i32, i32, i32, i32, i32, i32, i32, i32, i32, i32, i32, i32, i64 }
%struct.VP8Matrix = type { [16 x i16], [16 x i16], [16 x i32], [16 x i32], [16 x i16] }
%struct.VP8EncProba = type { [3 x i8], i8, [4 x [8 x [3 x [11 x i8]]]], [4 x [8 x [3 x [11 x i32]]]], [4 x [8 x [3 x [68 x i16]]]], [4 x [16 x [3 x ptr]]], i32, i32, i32 }
%struct.WebPWorkerInterface = type { ptr, ptr, ptr, ptr, ptr, ptr }

; Function Attrs: nounwind uwtable
define hidden i32 @VP8EncStartAlpha(ptr noundef %0) #0 {
  %2 = alloca i32, align 4
  %3 = alloca ptr, align 8
  %4 = alloca ptr, align 8
  %5 = alloca i32, align 4
  store ptr %0, ptr %3, align 8, !tbaa !3
  %6 = load ptr, ptr %3, align 8, !tbaa !3
  %7 = getelementptr inbounds nuw %struct.VP8Encoder, ptr %6, i32 0, i32 13
  %8 = load i32, ptr %7, align 4, !tbaa !26
  %9 = icmp ne i32 %8, 0
  br i1 %9, label %10, label %38

10:                                               ; preds = %1
  %11 = load ptr, ptr %3, align 8, !tbaa !3
  %12 = getelementptr inbounds nuw %struct.VP8Encoder, ptr %11, i32 0, i32 36
  %13 = load i32, ptr %12, align 8, !tbaa !29
  %14 = icmp sgt i32 %13, 0
  br i1 %14, label %15, label %35

15:                                               ; preds = %10
  call void @llvm.lifetime.start.p0(i64 8, ptr %4) #6
  %16 = load ptr, ptr %3, align 8, !tbaa !3
  %17 = getelementptr inbounds nuw %struct.VP8Encoder, ptr %16, i32 0, i32 16
  store ptr %17, ptr %4, align 8, !tbaa !30
  %18 = call ptr @WebPGetWorkerInterface()
  %19 = getelementptr inbounds nuw %struct.WebPWorkerInterface, ptr %18, i32 0, i32 1
  %20 = load ptr, ptr %19, align 8, !tbaa !47
  %21 = load ptr, ptr %4, align 8, !tbaa !30
  %22 = call i32 %20(ptr noundef %21)
  %23 = icmp ne i32 %22, 0
  br i1 %23, label %29, label %24

24:                                               ; preds = %15
  %25 = load ptr, ptr %3, align 8, !tbaa !3
  %26 = getelementptr inbounds nuw %struct.VP8Encoder, ptr %25, i32 0, i32 1
  %27 = load ptr, ptr %26, align 8, !tbaa !8
  %28 = call i32 @WebPEncodingSetError(ptr noundef %27, i32 noundef 1)
  store i32 %28, ptr %2, align 4
  store i32 1, ptr %5, align 4
  br label %34

29:                                               ; preds = %15
  %30 = call ptr @WebPGetWorkerInterface()
  %31 = getelementptr inbounds nuw %struct.WebPWorkerInterface, ptr %30, i32 0, i32 3
  %32 = load ptr, ptr %31, align 8, !tbaa !48
  %33 = load ptr, ptr %4, align 8, !tbaa !30
  call void %32(ptr noundef %33)
  store i32 1, ptr %2, align 4
  store i32 1, ptr %5, align 4
  br label %34

34:                                               ; preds = %29, %24
  call void @llvm.lifetime.end.p0(i64 8, ptr %4) #6
  br label %39

35:                                               ; preds = %10
  %36 = load ptr, ptr %3, align 8, !tbaa !3
  %37 = call i32 @CompressAlphaJob(ptr noundef %36, ptr noundef null)
  store i32 %37, ptr %2, align 4
  br label %39

38:                                               ; preds = %1
  store i32 1, ptr %2, align 4
  br label %39

39:                                               ; preds = %38, %35, %34
  %40 = load i32, ptr %2, align 4
  ret i32 %40
}