; Function Attrs: nounwind uwtable
define hidden i32 @VP8EncStartAlpha(ptr noundef %0) local_unnamed_addr #0 {
  %2 = getelementptr inbounds nuw i8, ptr %0, i64 540
  %3 = load i32, ptr %2, align 4, !tbaa !24
  %.not = icmp eq i32 %3, 0
  br i1 %.not, label %24, label %4

4:                                                ; preds = %1
  %5 = getelementptr inbounds nuw i8, ptr %0, i64 23632
  %6 = load i32, ptr %5, align 8, !tbaa !27
  %7 = icmp sgt i32 %6, 0
  br i1 %7, label %8, label %22

8:                                                ; preds = %4
  %9 = getelementptr inbounds nuw i8, ptr %0, i64 560
  %10 = tail call ptr @WebPGetWorkerInterface() #5
  %11 = getelementptr inbounds nuw i8, ptr %10, i64 8
  %12 = load ptr, ptr %11, align 8, !tbaa !81
  %13 = tail call i32 %12(ptr noundef nonnull %9) #5
  %.not7 = icmp eq i32 %13, 0
  br i1 %.not7, label %14, label %18

14:                                               ; preds = %8
  %15 = getelementptr inbounds nuw i8, ptr %0, i64 8
  %16 = load ptr, ptr %15, align 8, !tbaa !3
  %17 = tail call i32 @WebPEncodingSetError(ptr noundef %16, i32 noundef 1) #5
  br label %24

18:                                               ; preds = %8
  %19 = tail call ptr @WebPGetWorkerInterface() #5
  %20 = getelementptr inbounds nuw i8, ptr %19, i64 24
  %21 = load ptr, ptr %20, align 8, !tbaa !82
  tail call void %21(ptr noundef nonnull %9) #5
  br label %24

22:                                               ; preds = %4
  %23 = tail call i32 @CompressAlphaJob(ptr noundef nonnull %0, ptr poison)
  br label %24

24:                                               ; preds = %1, %14, %18, %22
  %.1 = phi i32 [ %23, %22 ], [ 1, %18 ], [ %17, %14 ], [ 1, %1 ]
  ret i32 %.1
}